target datalayout = "e-m:e-p270:32:32-p271:32:32-p272:64:64-i64:64-i128:128-f80:128-n8:16:32:64-S128"
target triple = "x86_64-pc-linux-gnu"

%struct.grpc_slice_buffer = type { ptr, ptr, i64, i64, i64, [6 x %struct.grpc_slice] }
%struct.grpc_slice = type { ptr, %"union.grpc_slice::grpc_slice_data" }
%"union.grpc_slice::grpc_slice_data" = type { %"struct.grpc_slice::grpc_slice_data::grpc_slice_refcounted", [8 x i8] }
%"struct.grpc_slice::grpc_slice_data::grpc_slice_refcounted" = type { i64, ptr }
%struct.alts_grpc_record_protocol = type { ptr, ptr, %struct.grpc_slice_buffer, ptr, i64, i64, ptr, i64 }

; Function Attrs: mustprogress uwtable
define noundef i64 @_Z51alts_grpc_record_protocol_max_unprotected_data_sizePK25alts_grpc_record_protocolm(ptr noundef %0, i64 noundef %1) #4 {
  %3 = alloca i64, align 8
  %4 = alloca ptr, align 8
  %5 = alloca i64, align 8
  store ptr %0, ptr %4, align 8, !tbaa !3
  store i64 %1, ptr %5, align 8, !tbaa !14
  %6 = load ptr, ptr %4, align 8, !tbaa !3
  %7 = icmp eq ptr %6, null
  br i1 %7, label %8, label %9

8:                                                ; preds = %2
  store i64 0, ptr %3, align 8
  br label %15

9:                                                ; preds = %2
  %10 = load ptr, ptr %4, align 8, !tbaa !3
  %11 = getelementptr inbounds nuw %struct.alts_grpc_record_protocol, ptr %10, i32 0, i32 1
  %12 = load ptr, ptr %11, align 8, !tbaa !66
  %13 = load i64, ptr %5, align 8, !tbaa !14
  %14 = call noundef i64 @_Z52alts_iovec_record_protocol_max_unprotected_data_sizePK26alts_iovec_record_protocolm(ptr noundef %12, i64 noundef %13)
  store i64 %14, ptr %3, align 8
  br label %15

15:                                               ; preds = %9, %8
  %16 = load i64, ptr %3, align 8
  ret i64 %16
}