; Function Attrs: mustprogress uwtable
define noundef i64 @_Z51alts_grpc_record_protocol_max_unprotected_data_sizePK25alts_grpc_record_protocolm(ptr noundef readonly %0, i64 noundef %1) local_unnamed_addr #3 {
  %3 = icmp eq ptr %0, null
  br i1 %3, label %8, label %4

4:                                                ; preds = %2
  %5 = getelementptr inbounds nuw i8, ptr %0, i64 8
  %6 = load ptr, ptr %5, align 8, !tbaa !38
  %7 = tail call noundef i64 @_Z52alts_iovec_record_protocol_max_unprotected_data_sizePK26alts_iovec_record_protocolm(ptr noundef %6, i64 noundef %1)
  br label %8

8:                                                ; preds = %2, %4
  %.0 = phi i64 [ %7, %4 ], [ 0, %2 ]
  ret i64 %.0
}